target datalayout = "e-m:e-p270:32:32-p271:32:32-p272:64:64-i64:64-i128:128-f80:128-n8:16:32:64-S128"
target triple = "x86_64-pc-linux-gnu"

; Function Attrs: mustprogress nounwind uwtable
define internal noundef i32 @_ZL20RankDeductionFailureRKN5clang20DeductionFailureInfoE(ptr noundef nonnull align 8 dereferenceable(48) %0) #0 {
  %2 = alloca i32, align 4
  %3 = alloca ptr, align 8
  store ptr %0, ptr %3, align 8
  %4 = load ptr, ptr %3, align 8
  %5 = load i16, ptr %4, align 8
  %6 = and i16 %5, 255
  %7 = zext i16 %6 to i32
  switch i32 %7, label %15 [
    i32 0, label %8
    i32 14, label %8
    i32 18, label %8
    i32 1, label %9
    i32 3, label %9
    i32 4, label %9
    i32 6, label %10
    i32 5, label %10
    i32 7, label %11
    i32 8, label %11
    i32 15, label %11
    i32 9, label %11
    i32 10, label %11
    i32 16, label %11
    i32 17, label %11
    i32 2, label %12
    i32 13, label %13
    i32 11, label %14
    i32 12, label %14
  ]

8:                                                ; preds = %1, %1, %1
  unreachable

9:                                                ; preds = %1, %1, %1
  store i32 1, ptr %2, align 4
  br label %16

10:                                               ; preds = %1, %1
  store i32 2, ptr %2, align 4
  br label %16

11:                                               ; preds = %1, %1, %1, %1, %1, %1, %1
  store i32 3, ptr %2, align 4
  br label %16

12:                                               ; preds = %1
  store i32 4, ptr %2, align 4
  br label %16

13:                                               ; preds = %1
  store i32 5, ptr %2, align 4
  br label %16

14:                                               ; preds = %1, %1
  store i32 6, ptr %2, align 4
  br label %16

15:                                               ; preds = %1
  unreachable

16:                                               ; preds = %14, %13, %12, %11, %10, %9
  %17 = load i32, ptr %2, align 4
  ret i32 %17
}