; Function Attrs: mustprogress nofree norecurse nosync nounwind willreturn memory(none) uwtable
define internal fastcc noundef range(i32 1, 7) i32 @_ZL20RankDeductionFailureRKN5clang20DeductionFailureInfoE(i16 %.0.val) unnamed_addr #0 {
switch.lookup:
  %trunc = zext i16 %.0.val to i64
  %switch.tableidx = shl i64 %trunc, 56
  %sext = add i64 %switch.tableidx, -72057594037927936
  %0 = ashr exact i64 %sext, 56
  %switch.gep = getelementptr inbounds [17 x i32], ptr @switch.table._ZSt16__insertion_sortIPPN5clang21TemplateSpecCandidateEN9__gnu_cxx5__ops15_Iter_comp_iterIN12_GLOBAL__N_139CompareTemplateSpecCandidatesForDisplayEEEEvT_SA_T0_.140, i64 0, i64 %0
  %switch.load = load i32, ptr %switch.gep, align 4
  ret i32 %switch.load
}